; Function Attrs: inlinehint mustprogress nounwind uwtable
define internal void @_ZZN7rocksdb15RemapFileSystem12NewDirectoryERKNSt7__cxx1112basic_stringIcSt11char_traitsIcESaIcEEERKNS_9IOOptionsEPSt10unique_ptrINS_11FSDirectoryESt14default_deleteISD_EEPNS_14IODebugContextEEN16RemapFSDirectoryD0Ev(ptr noundef nonnull align 8 dereferenceable(32) initializes((0, 8)) %0) unnamed_addr #3 align 2 personality ptr @__gxx_personality_v0 {
  store ptr getelementptr inbounds nuw inrange(-16, 48) (i8, ptr @_ZTVN7rocksdb18FSDirectoryWrapperE, i64 16), ptr %0, align 8, !tbaa !4
  %2 = getelementptr inbounds nuw i8, ptr %0, i64 8
  %3 = load ptr, ptr %2, align 8, !tbaa !82
  %.not.i.i = icmp eq ptr %3, null
  br i1 %.not.i.i, label %_ZN7rocksdb18FSDirectoryWrapperD2Ev.exit, label %_ZNKSt14default_deleteIN7rocksdb11FSDirectoryEEclEPS1_.exit.i.i

_ZNKSt14default_deleteIN7rocksdb11FSDirectoryEEclEPS1_.exit.i.i: ; preds = %1
  %4 = load ptr, ptr %3, align 8, !tbaa !4
  %5 = getelementptr inbounds nuw i8, ptr %4, i64 8
  %6 = load ptr, ptr %5, align 8
  tail call void %6(ptr noundef nonnull align 8 dereferenceable(8) %3) #19
  br label %_ZN7rocksdb18FSDirectoryWrapperD2Ev.exit

_ZN7rocksdb18FSDirectoryWrapperD2Ev.exit:         ; preds = %1, %_ZNKSt14default_deleteIN7rocksdb11FSDirectoryEEclEPS1_.exit.i.i
  tail call void @_ZdlPvm(ptr noundef nonnull %0, i64 noundef 32) #22
  ret void
}